target datalayout = "e-m:e-p270:32:32-p271:32:32-p272:64:64-i64:64-i128:128-f80:128-n8:16:32:64-S128"
target triple = "x86_64-unknown-linux-gnu"

%"class.icu_75::numparse::impl::NumberParseMatcher" = type { ptr }
%"class.icu_75::UnicodeString" = type { %"class.icu_75::Replaceable", %"union.icu_75::UnicodeString::StackBufferOrFields" }
%"class.icu_75::Replaceable" = type { %"class.icu_75::UObject" }
%"class.icu_75::UObject" = type { ptr }
%"union.icu_75::UnicodeString::StackBufferOrFields" = type { %struct.anon.1, [32 x i8] }
%struct.anon.1 = type { i16, i32, i32, ptr }
%"class.icu_75::numparse::impl::AffixMatcher" = type <{ %"class.icu_75::numparse::impl::NumberParseMatcher", ptr, ptr, i32, [4 x i8] }>
%struct.anon = type { i16, [27 x i16] }
%"class.icu_75::numparse::impl::ParsedNumber" = type { %"class.icu_75::number::impl::DecimalQuantity", i32, i32, %"class.icu_75::UnicodeString", %"class.icu_75::UnicodeString", [4 x i16] }
%"class.icu_75::number::impl::DecimalQuantity" = type <{ %"class.icu_75::IFixedDecimal", i8, [3 x i8], i32, i32, i8, i8, [2 x i8], double, i32, i32, i32, i32, %union.anon, i8, i8, [6 x i8] }>
%"class.icu_75::IFixedDecimal" = type { ptr }
%union.anon = type { %struct.anon.5 }
%struct.anon.5 = type { ptr, i32 }

@_ZTVN6icu_7513UnicodeStringE = external unnamed_addr constant { [13 x ptr] }, align 8
@_ZTVN6icu_7511ReplaceableE = external unnamed_addr constant { [13 x ptr] }, align 8
@_ZTVN6icu_757UObjectE = external unnamed_addr constant { [5 x ptr] }, align 8

; Function Attrs: mustprogress nounwind uwtable
define linkonce_odr void @_ZN6icu_757UObjectC2Ev(ptr noundef nonnull align 8 dereferenceable(8) %this) unnamed_addr #0 comdat align 2 {
entry:
  %this.addr = alloca ptr, align 8
  store ptr %this, ptr %this.addr, align 8
  %this1 = load ptr, ptr %this.addr, align 8
  store ptr getelementptr inbounds ({ [5 x ptr] }, ptr @_ZTVN6icu_757UObjectE, i32 0, i32 0, i32 2), ptr %this1, align 8
  ret void
}

; Function Attrs: mustprogress nounwind uwtable
define linkonce_odr void @_ZN6icu_7511ReplaceableC2Ev(ptr noundef nonnull align 8 dereferenceable(8) %this) unnamed_addr #0 comdat align 2 {
entry:
  %this.addr = alloca ptr, align 8
  store ptr %this, ptr %this.addr, align 8
  %this1 = load ptr, ptr %this.addr, align 8
  call void @_ZN6icu_757UObjectC2Ev(ptr noundef nonnull align 8 dereferenceable(8) %this1) #13
  store ptr getelementptr inbounds ({ [13 x ptr] }, ptr @_ZTVN6icu_7511ReplaceableE, i32 0, i32 0, i32 2), ptr %this1, align 8
  ret void
}

; Function Attrs: mustprogress uwtable
define linkonce_odr void @_ZN6icu_7513UnicodeStringC2Ev(ptr noundef nonnull align 8 dereferenceable(64) %this) unnamed_addr #1 comdat align 2 {
entry:
  %this.addr = alloca ptr, align 8
  store ptr %this, ptr %this.addr, align 8
  %this1 = load ptr, ptr %this.addr, align 8
  call void @_ZN6icu_7511ReplaceableC2Ev(ptr noundef nonnull align 8 dereferenceable(8) %this1)
  store ptr getelementptr inbounds ({ [13 x ptr] }, ptr @_ZTVN6icu_7513UnicodeStringE, i32 0, i32 0, i32 2), ptr %this1, align 8
  %fUnion2 = getelementptr inbounds %"class.icu_75::UnicodeString", ptr %this1, i32 0, i32 1
  %fLengthAndFlags = getelementptr inbounds %struct.anon, ptr %fUnion2, i32 0, i32 0
  store i16 2, ptr %fLengthAndFlags, align 8
  ret void
}

; Function Attrs: mustprogress nounwind uwtable
define linkonce_odr noundef signext i8 @_ZNK6icu_7513UnicodeString7isBogusEv(ptr noundef nonnull align 8 dereferenceable(64) %this) #0 comdat align 2 {
entry:
  %this.addr = alloca ptr, align 8
  store ptr %this, ptr %this.addr, align 8
  %this1 = load ptr, ptr %this.addr, align 8
  %fUnion = getelementptr inbounds %"class.icu_75::UnicodeString", ptr %this1, i32 0, i32 1
  %fLengthAndFlags = getelementptr inbounds %struct.anon.1, ptr %fUnion, i32 0, i32 0
  %0 = load i16, ptr %fLengthAndFlags, align 8
  %conv = sext i16 %0 to i32
  %and = and i32 %conv, 1
  %conv2 = trunc i32 %and to i8
  ret i8 %conv2
}

; Function Attrs: mustprogress uwtable
define void @_ZNK6icu_758numparse4impl12AffixMatcher11postProcessERNS1_12ParsedNumberE(ptr noundef nonnull align 8 dereferenceable(28) %this, ptr noundef nonnull align 8 dereferenceable(216) %result) unnamed_addr #1 align 2 {
entry:
  %this.addr = alloca ptr, align 8
  %result.addr = alloca ptr, align 8
  %ref.tmp = alloca %"class.icu_75::UnicodeString", align 8
  %ref.tmp12 = alloca %"class.icu_75::UnicodeString", align 8
  store ptr %this, ptr %this.addr, align 8
  store ptr %result, ptr %result.addr, align 8
  %this1 = load ptr, ptr %this.addr, align 8
  %fPrefix = getelementptr inbounds %"class.icu_75::numparse::impl::AffixMatcher", ptr %this1, i32 0, i32 1
  %0 = load ptr, ptr %fPrefix, align 8
  %1 = load ptr, ptr %result.addr, align 8
  %prefix = getelementptr inbounds %"class.icu_75::numparse::impl::ParsedNumber", ptr %1, i32 0, i32 3
  %call = call noundef zeroext i1 @_ZN12_GLOBAL__N_17matchedEPKN6icu_758numparse4impl19AffixPatternMatcherERKNS0_13UnicodeStringE(ptr noundef %0, ptr noundef nonnull align 8 dereferenceable(64) %prefix)
  br i1 %call, label %land.lhs.true, label %if.end27

land.lhs.true:                                    ; preds = %entry
  %fSuffix = getelementptr inbounds %"class.icu_75::numparse::impl::AffixMatcher", ptr %this1, i32 0, i32 2
  %2 = load ptr, ptr %fSuffix, align 8
  %3 = load ptr, ptr %result.addr, align 8
  %suffix = getelementptr inbounds %"class.icu_75::numparse::impl::ParsedNumber", ptr %3, i32 0, i32 4
  %call2 = call noundef zeroext i1 @_ZN12_GLOBAL__N_17matchedEPKN6icu_758numparse4impl19AffixPatternMatcherERKNS0_13UnicodeStringE(ptr noundef %2, ptr noundef nonnull align 8 dereferenceable(64) %suffix)
  br i1 %call2, label %if.then, label %if.end27

if.then:                                          ; preds = %land.lhs.true
  %4 = load ptr, ptr %result.addr, align 8
  %prefix3 = getelementptr inbounds %"class.icu_75::numparse::impl::ParsedNumber", ptr %4, i32 0, i32 3
  %call4 = call noundef signext i8 @_ZNK6icu_7513UnicodeString7isBogusEv(ptr noundef nonnull align 8 dereferenceable(64) %prefix3)
  %tobool = icmp ne i8 %call4, 0
  br i1 %tobool, label %if.then5, label %if.end

if.then5:                                         ; preds = %if.then
  call void @_ZN6icu_7513UnicodeStringC2Ev(ptr noundef nonnull align 8 dereferenceable(64) %ref.tmp)
  %5 = load ptr, ptr %result.addr, align 8
  %prefix6 = getelementptr inbounds %"class.icu_75::numparse::impl::ParsedNumber", ptr %5, i32 0, i32 3
  %call7 = call noundef nonnull align 8 dereferenceable(64) ptr @_ZN6icu_7513UnicodeStringaSEOS0_(ptr noundef nonnull align 8 dereferenceable(64) %prefix6, ptr noundef nonnull align 8 dereferenceable(64) %ref.tmp) #13
  call void @_ZN6icu_7513UnicodeStringD1Ev(ptr noundef nonnull align 8 dereferenceable(64) %ref.tmp) #13
  br label %if.end

if.end:                                           ; preds = %if.then5, %if.then
  %6 = load ptr, ptr %result.addr, align 8
  %suffix8 = getelementptr inbounds %"class.icu_75::numparse::impl::ParsedNumber", ptr %6, i32 0, i32 4
  %call9 = call noundef signext i8 @_ZNK6icu_7513UnicodeString7isBogusEv(ptr noundef nonnull align 8 dereferenceable(64) %suffix8)
  %tobool10 = icmp ne i8 %call9, 0
  br i1 %tobool10, label %if.then11, label %if.end15

if.then11:                                        ; preds = %if.end
  call void @_ZN6icu_7513UnicodeStringC2Ev(ptr noundef nonnull align 8 dereferenceable(64) %ref.tmp12)
  %7 = load ptr, ptr %result.addr, align 8
  %suffix13 = getelementptr inbounds %"class.icu_75::numparse::impl::ParsedNumber", ptr %7, i32 0, i32 4
  %call14 = call noundef nonnull align 8 dereferenceable(64) ptr @_ZN6icu_7513UnicodeStringaSEOS0_(ptr noundef nonnull align 8 dereferenceable(64) %suffix13, ptr noundef nonnull align 8 dereferenceable(64) %ref.tmp12) #13
  call void @_ZN6icu_7513UnicodeStringD1Ev(ptr noundef nonnull align 8 dereferenceable(64) %ref.tmp12) #13
  br label %if.end15

if.end15:                                         ; preds = %if.then11, %if.end
  %fFlags = getelementptr inbounds %"class.icu_75::numparse::impl::AffixMatcher", ptr %this1, i32 0, i32 3
  %8 = load i32, ptr %fFlags, align 8
  %9 = load ptr, ptr %result.addr, align 8
  %flags = getelementptr inbounds %"class.icu_75::numparse::impl::ParsedNumber", ptr %9, i32 0, i32 2
  %10 = load i32, ptr %flags, align 4
  %or = or i32 %10, %8
  store i32 %or, ptr %flags, align 4
  %fPrefix16 = getelementptr inbounds %"class.icu_75::numparse::impl::AffixMatcher", ptr %this1, i32 0, i32 1
  %11 = load ptr, ptr %fPrefix16, align 8
  %cmp = icmp ne ptr %11, null
  br i1 %cmp, label %if.then17, label %if.end19

if.then17:                                        ; preds = %if.end15
  %fPrefix18 = getelementptr inbounds %"class.icu_75::numparse::impl::AffixMatcher", ptr %this1, i32 0, i32 1
  %12 = load ptr, ptr %fPrefix18, align 8
  %13 = load ptr, ptr %result.addr, align 8
  %vtable = load ptr, ptr %12, align 8
  %vfn = getelementptr inbounds ptr, ptr %vtable, i64 5
  %14 = load ptr, ptr %vfn, align 8
  call void %14(ptr noundef nonnull align 8 dereferenceable(8) %12, ptr noundef nonnull align 8 dereferenceable(216) %13)
  br label %if.end19

if.end19:                                         ; preds = %if.then17, %if.end15
  %fSuffix20 = getelementptr inbounds %"class.icu_75::numparse::impl::AffixMatcher", ptr %this1, i32 0, i32 2
  %15 = load ptr, ptr %fSuffix20, align 8
  %cmp21 = icmp ne ptr %15, null
  br i1 %cmp21, label %if.then22, label %if.end26

if.then22:                                        ; preds = %if.end19
  %fSuffix23 = getelementptr inbounds %"class.icu_75::numparse::impl::AffixMatcher", ptr %this1, i32 0, i32 2
  %16 = load ptr, ptr %fSuffix23, align 8
  %17 = load ptr, ptr %result.addr, align 8
  %vtable24 = load ptr, ptr %16, align 8
  %vfn25 = getelementptr inbounds ptr, ptr %vtable24, i64 5
  %18 = load ptr, ptr %vfn25, align 8
  call void %18(ptr noundef nonnull align 8 dereferenceable(8) %16, ptr noundef nonnull align 8 dereferenceable(216) %17)
  br label %if.end26

if.end26:                                         ; preds = %if.then22, %if.end19
  br label %if.end27

if.end27:                                         ; preds = %if.end26, %land.lhs.true, %entry
  ret void
}