; Function Attrs: mustprogress uwtable
define void @_ZNK6icu_758numparse4impl12AffixMatcher11postProcessERNS1_12ParsedNumberE(ptr nocapture noundef nonnull readonly align 8 dereferenceable(28) %this, ptr noundef nonnull align 8 dereferenceable(216) %result) unnamed_addr #1 align 2 {
entry:
  %ref.tmp = alloca %"class.icu_75::UnicodeString", align 8
  %ref.tmp12 = alloca %"class.icu_75::UnicodeString", align 8
  %fPrefix = getelementptr inbounds i8, ptr %this, i64 8
  %0 = load ptr, ptr %fPrefix, align 8
  %prefix = getelementptr inbounds i8, ptr %result, i64 80
  %call = tail call fastcc noundef zeroext i1 @_ZN12_GLOBAL__N_17matchedEPKN6icu_758numparse4impl19AffixPatternMatcherERKNS0_13UnicodeStringE(ptr noundef %0, ptr noundef nonnull align 8 dereferenceable(64) %prefix)
  br i1 %call, label %land.lhs.true, label %if.end27

land.lhs.true:                                    ; preds = %entry
  %fSuffix = getelementptr inbounds i8, ptr %this, i64 16
  %1 = load ptr, ptr %fSuffix, align 8
  %suffix = getelementptr inbounds i8, ptr %result, i64 144
  %call2 = tail call fastcc noundef zeroext i1 @_ZN12_GLOBAL__N_17matchedEPKN6icu_758numparse4impl19AffixPatternMatcherERKNS0_13UnicodeStringE(ptr noundef %1, ptr noundef nonnull align 8 dereferenceable(64) %suffix)
  br i1 %call2, label %if.then, label %if.end27

if.then:                                          ; preds = %land.lhs.true
  %fUnion.i = getelementptr inbounds i8, ptr %result, i64 88
  %2 = load i16, ptr %fUnion.i, align 8
  %conv2.i13 = and i16 %2, 1
  %tobool.not = icmp eq i16 %conv2.i13, 0
  br i1 %tobool.not, label %if.end, label %if.then5

if.then5:                                         ; preds = %if.then
  store ptr getelementptr inbounds ({ [13 x ptr] }, ptr @_ZTVN6icu_7513UnicodeStringE, i64 0, i32 0, i64 2), ptr %ref.tmp, align 8
  %fUnion2.i = getelementptr inbounds i8, ptr %ref.tmp, i64 8
  store i16 2, ptr %fUnion2.i, align 8
  %call7 = call noundef nonnull align 8 dereferenceable(64) ptr @_ZN6icu_7513UnicodeStringaSEOS0_(ptr noundef nonnull align 8 dereferenceable(64) %prefix, ptr noundef nonnull align 8 dereferenceable(64) %ref.tmp) #16
  call void @_ZN6icu_7513UnicodeStringD1Ev(ptr noundef nonnull align 8 dereferenceable(64) %ref.tmp) #16
  br label %if.end

if.end:                                           ; preds = %if.then5, %if.then
  %fUnion.i10 = getelementptr inbounds i8, ptr %result, i64 152
  %3 = load i16, ptr %fUnion.i10, align 8
  %conv2.i1114 = and i16 %3, 1
  %tobool10.not = icmp eq i16 %conv2.i1114, 0
  br i1 %tobool10.not, label %if.end15, label %if.then11

if.then11:                                        ; preds = %if.end
  store ptr getelementptr inbounds ({ [13 x ptr] }, ptr @_ZTVN6icu_7513UnicodeStringE, i64 0, i32 0, i64 2), ptr %ref.tmp12, align 8
  %fUnion2.i12 = getelementptr inbounds i8, ptr %ref.tmp12, i64 8
  store i16 2, ptr %fUnion2.i12, align 8
  %call14 = call noundef nonnull align 8 dereferenceable(64) ptr @_ZN6icu_7513UnicodeStringaSEOS0_(ptr noundef nonnull align 8 dereferenceable(64) %suffix, ptr noundef nonnull align 8 dereferenceable(64) %ref.tmp12) #16
  call void @_ZN6icu_7513UnicodeStringD1Ev(ptr noundef nonnull align 8 dereferenceable(64) %ref.tmp12) #16
  br label %if.end15

if.end15:                                         ; preds = %if.then11, %if.end
  %fFlags = getelementptr inbounds i8, ptr %this, i64 24
  %4 = load i32, ptr %fFlags, align 8
  %flags = getelementptr inbounds i8, ptr %result, i64 76
  %5 = load i32, ptr %flags, align 4
  %or = or i32 %5, %4
  store i32 %or, ptr %flags, align 4
  %6 = load ptr, ptr %fPrefix, align 8
  %cmp.not = icmp eq ptr %6, null
  br i1 %cmp.not, label %if.end19, label %if.then17

if.then17:                                        ; preds = %if.end15
  %vtable = load ptr, ptr %6, align 8
  %vfn = getelementptr inbounds i8, ptr %vtable, i64 40
  %7 = load ptr, ptr %vfn, align 8
  call void %7(ptr noundef nonnull align 8 dereferenceable(8) %6, ptr noundef nonnull align 8 dereferenceable(216) %result)
  br label %if.end19

if.end19:                                         ; preds = %if.then17, %if.end15
  %8 = load ptr, ptr %fSuffix, align 8
  %cmp21.not = icmp eq ptr %8, null
  br i1 %cmp21.not, label %if.end27, label %if.then22

if.then22:                                        ; preds = %if.end19
  %vtable24 = load ptr, ptr %8, align 8
  %vfn25 = getelementptr inbounds i8, ptr %vtable24, i64 40
  %9 = load ptr, ptr %vfn25, align 8
  call void %9(ptr noundef nonnull align 8 dereferenceable(8) %8, ptr noundef nonnull align 8 dereferenceable(216) %result)
  br label %if.end27

if.end27:                                         ; preds = %if.end19, %if.then22, %land.lhs.true, %entry
  ret void
}